; Function Attrs: null_pointer_is_valid sspstrong uwtable
define internal noundef zeroext i16 @de_rr_neigh_cell_desc2(ptr noundef %0, ptr noundef %1, ptr noundef readonly captures(none) %2, i32 noundef %3, i32 %4, ptr readnone captures(none) %5, i32 %6) #3 {
  %8 = load i32, ptr @hf_gsm_a_rr_multiband_reporting, align 4
  %9 = shl i32 %3, 3
  %10 = or disjoint i32 %9, 1
  %11 = tail call ptr @proto_tree_add_bits_item(ptr noundef %1, i32 noundef %8, ptr noundef %0, i32 noundef %10, i32 noundef 2, i32 noundef 0)
  %12 = load i32, ptr @hf_gsm_a_rr_ba_ind, align 4
  %13 = or disjoint i32 %9, 3
  %14 = tail call ptr @proto_tree_add_bits_item(ptr noundef %1, i32 noundef %12, ptr noundef %0, i32 noundef %13, i32 noundef 1, i32 noundef 0)
  %15 = tail call zeroext i8 @tvb_get_uint8(ptr noundef %0, i32 noundef %3)
  %16 = and i8 %15, -65
  %17 = load i32, ptr @hf_gsm_a_rr_format_id2, align 4
  %18 = tail call ptr @proto_tree_add_item(ptr noundef %1, i32 noundef %17, ptr noundef %0, i32 noundef %3, i32 noundef 1, i32 noundef 0)
  %19 = tail call fastcc noundef zeroext i16 @dissect_arfcn_list_core(ptr noundef %0, ptr noundef %1, ptr noundef readonly %2, i32 noundef %3, i32 noundef 16, i8 noundef zeroext %16)
  ret i16 %19
}